; Function Attrs: mustprogress nounwind uwtable
define hidden void @_ZN15XStatRelocation5printEPKcRK32XRelocationSetSelectorGroupStatsm(ptr noundef %0, ptr nocapture noundef nonnull readonly align 8 dereferenceable(48) %1, i64 noundef %2) local_unnamed_addr #0 align 2 {
  %4 = load volatile ptr, ptr getelementptr inbounds (i8, ptr @_ZN16LogTagSetMappingILN6LogTag4typeE49ELS1_129ELS1_0ELS1_0ELS1_0ELS1_0EE7_tagsetE, i64 64), align 8
  %.not = icmp eq ptr %4, null
  br i1 %.not, label %16, label %5

5:                                                ; preds = %3
  %6 = load i64, ptr %1, align 8
  %7 = getelementptr inbounds i8, ptr %1, i64 8
  %8 = load i64, ptr %7, align 8
  %9 = lshr i64 %8, 20
  %10 = getelementptr inbounds i8, ptr %1, i64 24
  %11 = load i64, ptr %10, align 8
  %12 = lshr i64 %11, 20
  %13 = getelementptr inbounds i8, ptr %1, i64 40
  %14 = load i64, ptr %13, align 8
  %15 = lshr i64 %14, 20
  tail call void (ptr, ...) @_ZN7LogImplILN6LogTag4typeE49ELS1_129ELS1_0ELS1_0ELS1_0ELS1_0EE5writeILN8LogLevel4typeE3EEEvPKcz(ptr noundef nonnull @.str.43, ptr noundef %0, i64 noundef %6, i64 noundef %9, i64 noundef %12, i64 noundef %15, i64 noundef %2)
  br label %16

16:                                               ; preds = %3, %5
  ret void
}